target datalayout = "e-m:e-p270:32:32-p271:32:32-p272:64:64-i64:64-i128:128-f80:128-n8:16:32:64-S128"
target triple = "x86_64-unknown-linux-gnu"

%"class.std::vector.102" = type { %"struct.std::_Vector_base.103" }
%"struct.std::_Vector_base.103" = type { %"struct.std::_Vector_base<unsigned long, std::allocator<unsigned long>>::_Vector_impl" }
%"struct.std::_Vector_base<unsigned long, std::allocator<unsigned long>>::_Vector_impl" = type { %"struct.std::_Vector_base<unsigned long, std::allocator<unsigned long>>::_Vector_impl_data" }
%"struct.std::_Vector_base<unsigned long, std::allocator<unsigned long>>::_Vector_impl_data" = type { ptr, ptr, ptr }
%"class.facebook::velox::DecodedVector" = type { i32, ptr, ptr, ptr, %"class.std::optional.189", ptr, i8, i8, i8, i8, i8, i32, %"class.std::vector.197", %"class.std::vector.102" }
%"class.std::optional.189" = type { %"struct.std::_Optional_base.190" }
%"struct.std::_Optional_base.190" = type { %"struct.std::_Optional_payload.192" }
%"struct.std::_Optional_payload.192" = type { %"struct.std::_Optional_payload_base.base.194", [7 x i8] }
%"struct.std::_Optional_payload_base.base.194" = type <{ %"union.std::_Optional_payload_base<const unsigned long *>::_Storage", i8 }>
%"union.std::_Optional_payload_base<const unsigned long *>::_Storage" = type { ptr }
%"class.std::vector.197" = type { %"struct.std::_Vector_base.198" }
%"struct.std::_Vector_base.198" = type { %"struct.std::_Vector_base<int, std::allocator<int>>::_Vector_impl" }
%"struct.std::_Vector_base<int, std::allocator<int>>::_Vector_impl" = type { %"struct.std::_Vector_base<int, std::allocator<int>>::_Vector_impl_data" }
%"struct.std::_Vector_base<int, std::allocator<int>>::_Vector_impl_data" = type { ptr, ptr, ptr }

; Function Attrs: mustprogress nounwind uwtable
define linkonce_odr noundef i32 @_ZNK8facebook5velox13DecodedVector5indexEi(ptr noundef nonnull align 8 dereferenceable(120) %this, i32 noundef %idx) #5 comdat align 2 {
entry:
  %retval = alloca i32, align 4
  %this.addr = alloca ptr, align 8
  %idx.addr = alloca i32, align 4
  store ptr %this, ptr %this.addr, align 8
  store i32 %idx, ptr %idx.addr, align 4
  %this1 = load ptr, ptr %this.addr, align 8
  %isIdentityMapping_ = getelementptr inbounds %"class.facebook::velox::DecodedVector", ptr %this1, i32 0, i32 8
  %0 = load i8, ptr %isIdentityMapping_, align 2
  %tobool = trunc i8 %0 to i1
  br i1 %tobool, label %if.then, label %if.end

if.then:                                          ; preds = %entry
  %1 = load i32, ptr %idx.addr, align 4
  store i32 %1, ptr %retval, align 4
  br label %return

if.end:                                           ; preds = %entry
  %isConstantMapping_ = getelementptr inbounds %"class.facebook::velox::DecodedVector", ptr %this1, i32 0, i32 9
  %2 = load i8, ptr %isConstantMapping_, align 1
  %tobool2 = trunc i8 %2 to i1
  br i1 %tobool2, label %if.then3, label %if.end4

if.then3:                                         ; preds = %if.end
  %constantIndex_ = getelementptr inbounds %"class.facebook::velox::DecodedVector", ptr %this1, i32 0, i32 11
  %3 = load i32, ptr %constantIndex_, align 8
  store i32 %3, ptr %retval, align 4
  br label %return

if.end4:                                          ; preds = %if.end
  %indices_ = getelementptr inbounds %"class.facebook::velox::DecodedVector", ptr %this1, i32 0, i32 1
  %4 = load ptr, ptr %indices_, align 8
  %5 = load i32, ptr %idx.addr, align 4
  %idxprom = sext i32 %5 to i64
  %arrayidx = getelementptr inbounds i32, ptr %4, i64 %idxprom
  %6 = load i32, ptr %arrayidx, align 4
  store i32 %6, ptr %retval, align 4
  br label %return

return:                                           ; preds = %if.end4, %if.then3, %if.then
  %7 = load i32, ptr %retval, align 4
  ret i32 %7
}

; Function Attrs: mustprogress nounwind uwtable
define internal noundef i64 @_ZN8facebook5velox9functions12_GLOBAL__N_13addIllEET_S4_T0_i(i64 noundef %value, i64 noundef %step, i32 noundef %sequence) #5 {
entry:
  %value.addr = alloca i64, align 8
  %step.addr = alloca i64, align 8
  %sequence.addr = alloca i32, align 4
  %delta = alloca i128, align 16
  store i64 %value, ptr %value.addr, align 8
  store i64 %step, ptr %step.addr, align 8
  store i32 %sequence, ptr %sequence.addr, align 4
  %0 = load i64, ptr %step.addr, align 8
  %conv = sext i64 %0 to i128
  %1 = load i32, ptr %sequence.addr, align 4
  %conv1 = sext i32 %1 to i128
  %mul = mul nsw i128 %conv, %conv1
  store i128 %mul, ptr %delta, align 16
  %2 = load i64, ptr %value.addr, align 8
  %conv2 = sext i64 %2 to i128
  %3 = load i128, ptr %delta, align 16
  %add = add nsw i128 %conv2, %3
  %conv3 = trunc i128 %add to i64
  ret i64 %conv3
}

; Function Attrs: mustprogress nounwind uwtable
define internal noundef i64 @_ZN8facebook5velox9functions12_GLOBAL__N_116SequenceFunctionIllE7getStepEllPNS0_13DecodedVectorEibb(i64 noundef %start, i64 noundef %stop, ptr noundef %stepVector, i32 noundef %row, i1 noundef zeroext %isDate, i1 noundef zeroext %isYearMonth) #5 align 2 {
entry:
  %retval = alloca i64, align 8
  %start.addr = alloca i64, align 8
  %stop.addr = alloca i64, align 8
  %stepVector.addr = alloca ptr, align 8
  %row.addr = alloca i32, align 4
  %isDate.addr = alloca i8, align 1
  %isYearMonth.addr = alloca i8, align 1
  %step = alloca i64, align 8
  store i64 %start, ptr %start.addr, align 8
  store i64 %stop, ptr %stop.addr, align 8
  store ptr %stepVector, ptr %stepVector.addr, align 8
  store i32 %row, ptr %row.addr, align 4
  %frombool = zext i1 %isDate to i8
  store i8 %frombool, ptr %isDate.addr, align 1
  %frombool1 = zext i1 %isYearMonth to i8
  store i8 %frombool1, ptr %isYearMonth.addr, align 1
  %0 = load ptr, ptr %stepVector.addr, align 8
  %tobool = icmp ne ptr %0, null
  br i1 %tobool, label %if.end, label %if.then

if.then:                                          ; preds = %entry
  %1 = load i64, ptr %stop.addr, align 8
  %2 = load i64, ptr %start.addr, align 8
  %cmp = icmp sge i64 %1, %2
  %cond = select i1 %cmp, i32 1, i32 -1
  %conv = sext i32 %cond to i64
  store i64 %conv, ptr %retval, align 8
  br label %return

if.end:                                           ; preds = %entry
  %3 = load ptr, ptr %stepVector.addr, align 8
  %4 = load i32, ptr %row.addr, align 4
  %call = call noundef i64 @_ZNK8facebook5velox13DecodedVector7valueAtIlEET_i(ptr noundef nonnull align 8 dereferenceable(120) %3, i32 noundef %4)
  store i64 %call, ptr %step, align 8
  %5 = load i8, ptr %isDate.addr, align 1
  %tobool2 = trunc i8 %5 to i1
  br i1 %tobool2, label %lor.lhs.false, label %if.then4

lor.lhs.false:                                    ; preds = %if.end
  %6 = load i8, ptr %isYearMonth.addr, align 1
  %tobool3 = trunc i8 %6 to i1
  br i1 %tobool3, label %if.then4, label %if.end5

if.then4:                                         ; preds = %lor.lhs.false, %if.end
  %7 = load i64, ptr %step, align 8
  store i64 %7, ptr %retval, align 8
  br label %return

if.end5:                                          ; preds = %lor.lhs.false
  %8 = load i64, ptr %step, align 8
  %rem = srem i64 %8, 86400000
  %cmp6 = icmp eq i64 %rem, 0
  %lnot = xor i1 %cmp6, true
  br i1 %lnot, label %if.then8, label %if.end9

if.then8:                                         ; preds = %if.end5
  call void @llvm.trap()
  br label %if.end9

if.end9:                                          ; preds = %if.then8, %if.end5
  %9 = load i64, ptr %step, align 8
  %div = sdiv i64 %9, 86400000
  store i64 %div, ptr %retval, align 8
  br label %return

return:                                           ; preds = %if.end9, %if.then4, %if.then
  %10 = load i64, ptr %retval, align 8
  ret i64 %10
}

; Function Attrs: mustprogress nounwind uwtable
define internal noundef i64 @_ZN8facebook5velox9functions12_GLOBAL__N_17toInt64IlEElT_(i64 noundef %value) #5 {
entry:
  %value.addr = alloca i64, align 8
  store i64 %value, ptr %value.addr, align 8
  %0 = load i64, ptr %value.addr, align 8
  ret i64 %0
}

; Function Attrs: mustprogress nounwind uwtable
define linkonce_odr noundef i64 @_ZNK8facebook5velox13DecodedVector7valueAtIlEET_i(ptr noundef nonnull align 8 dereferenceable(120) %this, i32 noundef %idx) #5 comdat align 2 {
entry:
  %this.addr = alloca ptr, align 8
  %idx.addr = alloca i32, align 4
  store ptr %this, ptr %this.addr, align 8
  store i32 %idx, ptr %idx.addr, align 4
  %this1 = load ptr, ptr %this.addr, align 8
  %data_ = getelementptr inbounds %"class.facebook::velox::DecodedVector", ptr %this1, i32 0, i32 2
  %0 = load ptr, ptr %data_, align 8
  %1 = load i32, ptr %idx.addr, align 4
  %call = call noundef i32 @_ZNK8facebook5velox13DecodedVector5indexEi(ptr noundef nonnull align 8 dereferenceable(120) %this1, i32 noundef %1)
  %idxprom = sext i32 %call to i64
  %arrayidx = getelementptr inbounds i64, ptr %0, i64 %idxprom
  %2 = load i64, ptr %arrayidx, align 8
  ret i64 %2
}

; Function Attrs: mustprogress uwtable
define internal void @_ZN8facebook5velox9functions12_GLOBAL__N_116SequenceFunctionIllE15writeToElementsEPlbbiPNS0_13DecodedVectorES7_S7_i(ptr noundef %elements, i1 noundef zeroext %isDate, i1 noundef zeroext %isYearMonth, i32 noundef %sequenceCount, ptr noundef %startVector, ptr noundef %stopVector, ptr noundef %stepVector, i32 noundef %row) #4 align 2 {
entry:
  %elements.addr = alloca ptr, align 8
  %isDate.addr = alloca i8, align 1
  %isYearMonth.addr = alloca i8, align 1
  %sequenceCount.addr = alloca i32, align 4
  %startVector.addr = alloca ptr, align 8
  %stopVector.addr = alloca ptr, align 8
  %stepVector.addr = alloca ptr, align 8
  %row.addr = alloca i32, align 4
  %start = alloca i64, align 8
  %stop = alloca i64, align 8
  %step = alloca i64, align 8
  %sequence = alloca i32, align 4
  store ptr %elements, ptr %elements.addr, align 8
  %frombool = zext i1 %isDate to i8
  store i8 %frombool, ptr %isDate.addr, align 1
  %frombool1 = zext i1 %isYearMonth to i8
  store i8 %frombool1, ptr %isYearMonth.addr, align 1
  store i32 %sequenceCount, ptr %sequenceCount.addr, align 4
  store ptr %startVector, ptr %startVector.addr, align 8
  store ptr %stopVector, ptr %stopVector.addr, align 8
  store ptr %stepVector, ptr %stepVector.addr, align 8
  store i32 %row, ptr %row.addr, align 4
  %0 = load ptr, ptr %startVector.addr, align 8
  %1 = load i32, ptr %row.addr, align 4
  %call = call noundef i64 @_ZNK8facebook5velox13DecodedVector7valueAtIlEET_i(ptr noundef nonnull align 8 dereferenceable(120) %0, i32 noundef %1)
  store i64 %call, ptr %start, align 8
  %2 = load ptr, ptr %stopVector.addr, align 8
  %3 = load i32, ptr %row.addr, align 4
  %call2 = call noundef i64 @_ZNK8facebook5velox13DecodedVector7valueAtIlEET_i(ptr noundef nonnull align 8 dereferenceable(120) %2, i32 noundef %3)
  store i64 %call2, ptr %stop, align 8
  %4 = load i64, ptr %start, align 8
  %call3 = call noundef i64 @_ZN8facebook5velox9functions12_GLOBAL__N_17toInt64IlEElT_(i64 noundef %4)
  %5 = load i64, ptr %stop, align 8
  %call4 = call noundef i64 @_ZN8facebook5velox9functions12_GLOBAL__N_17toInt64IlEElT_(i64 noundef %5)
  %6 = load ptr, ptr %stepVector.addr, align 8
  %7 = load i32, ptr %row.addr, align 4
  %8 = load i8, ptr %isDate.addr, align 1
  %tobool = trunc i8 %8 to i1
  %9 = load i8, ptr %isYearMonth.addr, align 1
  %tobool5 = trunc i8 %9 to i1
  %call6 = call noundef i64 @_ZN8facebook5velox9functions12_GLOBAL__N_116SequenceFunctionIllE7getStepEllPNS0_13DecodedVectorEibb(i64 noundef %call3, i64 noundef %call4, ptr noundef %6, i32 noundef %7, i1 noundef zeroext %tobool, i1 noundef zeroext %tobool5)
  store i64 %call6, ptr %step, align 8
  store i32 0, ptr %sequence, align 4
  br label %for.cond

for.cond:                                         ; preds = %for.inc, %entry
  %10 = load i32, ptr %sequence, align 4
  %11 = load i32, ptr %sequenceCount.addr, align 4
  %cmp = icmp slt i32 %10, %11
  br i1 %cmp, label %for.body, label %for.end

for.body:                                         ; preds = %for.cond
  %12 = load i64, ptr %start, align 8
  %13 = load i64, ptr %step, align 8
  %14 = load i32, ptr %sequence, align 4
  %call7 = call noundef i64 @_ZN8facebook5velox9functions12_GLOBAL__N_13addIllEET_S4_T0_i(i64 noundef %12, i64 noundef %13, i32 noundef %14)
  %15 = load ptr, ptr %elements.addr, align 8
  %16 = load i32, ptr %sequence, align 4
  %idxprom = sext i32 %16 to i64
  %arrayidx = getelementptr inbounds i64, ptr %15, i64 %idxprom
  store i64 %call7, ptr %arrayidx, align 8
  br label %for.inc

for.inc:                                          ; preds = %for.body
  %17 = load i32, ptr %sequence, align 4
  %inc = add nsw i32 %17, 1
  store i32 %inc, ptr %sequence, align 4
  br label %for.cond, !llvm.loop !76

for.end:                                          ; preds = %for.cond
  ret void
}